; Function Attrs: nounwind uwtable
define internal range(i32 0, 9) i32 @ctrl_get_new_frame_image(ptr nocapture noundef readonly %0, ptr nocapture noundef %1) #0 {
  %3 = alloca %struct.yv12_buffer_config, align 8
  %4 = load i32, ptr %1, align 8
  %5 = icmp ult i32 %4, 41
  br i1 %5, label %6, label %12

6:                                                ; preds = %2
  %7 = getelementptr inbounds nuw i8, ptr %1, i64 16
  %8 = load ptr, ptr %7, align 8
  %9 = zext nneg i32 %4 to i64
  %10 = getelementptr i8, ptr %8, i64 %9
  %11 = add nuw nsw i32 %4, 8
  store i32 %11, ptr %1, align 8
  br label %16

12:                                               ; preds = %2
  %13 = getelementptr inbounds nuw i8, ptr %1, i64 8
  %14 = load ptr, ptr %13, align 8
  %15 = getelementptr i8, ptr %14, i64 8
  store ptr %15, ptr %13, align 8
  br label %16

16:                                               ; preds = %12, %6
  %17 = phi ptr [ %10, %6 ], [ %14, %12 ]
  %18 = load ptr, ptr %17, align 8
  %.not = icmp eq ptr %18, null
  br i1 %.not, label %116, label %19

19:                                               ; preds = %16
  %20 = getelementptr inbounds nuw i8, ptr %0, i64 27120
  %21 = load ptr, ptr %20, align 8
  %22 = getelementptr inbounds nuw i8, ptr %21, i64 32
  %23 = load ptr, ptr %22, align 8
  %24 = load ptr, ptr %23, align 8
  %25 = call i32 @av1_get_frame_to_show(ptr noundef %24, ptr noundef nonnull %3) #12
  %26 = icmp eq i32 %25, 0
  br i1 %26, label %._crit_edge, label %116

._crit_edge:                                      ; preds = %19
  %27 = getelementptr inbounds nuw i8, ptr %3, i64 148
  %28 = load i32, ptr %27, align 4
  %.not.i = icmp eq i32 %28, 0
  %29 = getelementptr inbounds nuw i8, ptr %3, i64 144
  %30 = load i32, ptr %29, align 8
  %.not74.i = icmp eq i32 %30, 0
  %..i = select i1 %.not74.i, i32 262, i32 261
  %.77.i = select i1 %.not74.i, i32 24, i32 16
  %.sink.i = select i1 %.not.i, i32 %..i, i32 258
  %.0.i = select i1 %.not.i, i32 %.77.i, i32 12
  store i32 %.sink.i, ptr %18, align 8
  %31 = getelementptr inbounds nuw i8, ptr %3, i64 156
  %32 = load i32, ptr %31, align 4
  %33 = getelementptr inbounds nuw i8, ptr %18, i64 4
  store i32 %32, ptr %33, align 4
  %34 = getelementptr inbounds nuw i8, ptr %3, i64 160
  %35 = load i32, ptr %34, align 8
  %36 = getelementptr inbounds nuw i8, ptr %18, i64 8
  store i32 %35, ptr %36, align 8
  %37 = getelementptr inbounds nuw i8, ptr %3, i64 164
  %38 = load i32, ptr %37, align 4
  %39 = getelementptr inbounds nuw i8, ptr %18, i64 12
  store i32 %38, ptr %39, align 4
  %40 = getelementptr inbounds nuw i8, ptr %3, i64 168
  %41 = load i8, ptr %40, align 8
  %42 = zext i8 %41 to i32
  %43 = getelementptr inbounds nuw i8, ptr %18, i64 16
  store i32 %42, ptr %43, align 8
  %44 = getelementptr inbounds nuw i8, ptr %3, i64 172
  %45 = load i32, ptr %44, align 4
  %46 = getelementptr inbounds nuw i8, ptr %18, i64 20
  store i32 %45, ptr %46, align 4
  %47 = getelementptr inbounds nuw i8, ptr %3, i64 176
  %48 = load i32, ptr %47, align 8
  %49 = getelementptr inbounds nuw i8, ptr %18, i64 24
  store i32 %48, ptr %49, align 8
  %50 = getelementptr inbounds nuw i8, ptr %18, i64 36
  store i32 8, ptr %50, align 4
  %51 = load i32, ptr %3, align 8
  %52 = getelementptr inbounds nuw i8, ptr %18, i64 28
  store i32 %51, ptr %52, align 4
  %53 = getelementptr inbounds nuw i8, ptr %3, i64 8
  %54 = load i32, ptr %53, align 8
  %55 = getelementptr inbounds nuw i8, ptr %18, i64 32
  store i32 %54, ptr %55, align 8
  %56 = getelementptr inbounds nuw i8, ptr %3, i64 16
  %57 = load i32, ptr %56, align 8
  %58 = getelementptr inbounds nuw i8, ptr %18, i64 40
  store i32 %57, ptr %58, align 8
  %59 = getelementptr inbounds nuw i8, ptr %3, i64 24
  %60 = load i32, ptr %59, align 8
  %61 = getelementptr inbounds nuw i8, ptr %18, i64 44
  store i32 %60, ptr %61, align 4
  %62 = getelementptr inbounds nuw i8, ptr %3, i64 180
  %63 = load i32, ptr %62, align 4
  %64 = getelementptr inbounds nuw i8, ptr %18, i64 48
  store i32 %63, ptr %64, align 8
  %65 = getelementptr inbounds nuw i8, ptr %3, i64 184
  %66 = load i32, ptr %65, align 8
  %67 = getelementptr inbounds nuw i8, ptr %18, i64 52
  store i32 %66, ptr %67, align 4
  %68 = getelementptr inbounds nuw i8, ptr %18, i64 56
  store i32 %30, ptr %68, align 8
  %69 = getelementptr inbounds nuw i8, ptr %18, i64 60
  store i32 %28, ptr %69, align 4
  %70 = getelementptr inbounds nuw i8, ptr %3, i64 40
  %71 = load ptr, ptr %70, align 8
  %72 = getelementptr inbounds nuw i8, ptr %18, i64 64
  store ptr %71, ptr %72, align 8
  %73 = getelementptr inbounds i8, ptr %3, i64 48
  %74 = load ptr, ptr %73, align 8
  %75 = getelementptr inbounds i8, ptr %18, i64 72
  store ptr %74, ptr %75, align 8
  %76 = getelementptr inbounds i8, ptr %3, i64 56
  %77 = load ptr, ptr %76, align 8
  %78 = getelementptr inbounds i8, ptr %18, i64 80
  store ptr %77, ptr %78, align 8
  %79 = getelementptr inbounds nuw i8, ptr %3, i64 32
  %80 = load i32, ptr %79, align 8
  %81 = getelementptr inbounds nuw i8, ptr %18, i64 88
  store i32 %80, ptr %81, align 8
  %82 = getelementptr inbounds i8, ptr %3, i64 36
  %83 = load i32, ptr %82, align 4
  %84 = getelementptr inbounds i8, ptr %18, i64 92
  store i32 %83, ptr %84, align 4
  %85 = getelementptr inbounds i8, ptr %18, i64 96
  store i32 %83, ptr %85, align 8
  %86 = getelementptr inbounds nuw i8, ptr %3, i64 192
  %87 = load i32, ptr %86, align 8
  %88 = and i32 %87, 8
  %.not75.i = icmp eq i32 %88, 0
  br i1 %.not75.i, label %yuvconfig2image.exit, label %89

89:                                               ; preds = %._crit_edge
  %.76.i = select i1 %.not74.i, i32 2310, i32 2309
  %90 = select i1 %.not.i, i32 %.76.i, i32 2306
  %91 = shl nuw nsw i32 %.0.i, 1
  store i32 %90, ptr %18, align 8
  %92 = getelementptr inbounds nuw i8, ptr %3, i64 152
  %93 = load i32, ptr %92, align 8
  store i32 %93, ptr %50, align 4
  %94 = ptrtoint ptr %71 to i64
  %95 = shl i64 %94, 1
  %96 = inttoptr i64 %95 to ptr
  store ptr %96, ptr %72, align 8
  %97 = ptrtoint ptr %74 to i64
  %98 = shl i64 %97, 1
  %99 = inttoptr i64 %98 to ptr
  store ptr %99, ptr %75, align 8
  %100 = ptrtoint ptr %77 to i64
  %101 = shl i64 %100, 1
  %102 = inttoptr i64 %101 to ptr
  store ptr %102, ptr %78, align 8
  %103 = shl nsw i32 %80, 1
  store i32 %103, ptr %81, align 8
  %104 = shl nsw i32 %83, 1
  store i32 %104, ptr %84, align 4
  store i32 %104, ptr %85, align 8
  br label %yuvconfig2image.exit

yuvconfig2image.exit:                             ; preds = %._crit_edge, %89
  %.1.i = phi i32 [ %91, %89 ], [ %.0.i, %._crit_edge ]
  %105 = getelementptr inbounds nuw i8, ptr %18, i64 112
  store i32 %.1.i, ptr %105, align 8
  %106 = getelementptr inbounds nuw i8, ptr %18, i64 128
  store ptr null, ptr %106, align 8
  %107 = getelementptr inbounds nuw i8, ptr %3, i64 112
  %108 = load ptr, ptr %107, align 8
  %109 = getelementptr inbounds nuw i8, ptr %18, i64 136
  store ptr %108, ptr %109, align 8
  %110 = getelementptr inbounds nuw i8, ptr %18, i64 144
  store i32 0, ptr %110, align 8
  %111 = getelementptr inbounds nuw i8, ptr %18, i64 148
  store i32 0, ptr %111, align 4
  %112 = getelementptr inbounds nuw i8, ptr %3, i64 136
  %113 = load i64, ptr %112, align 8
  %114 = getelementptr inbounds nuw i8, ptr %18, i64 104
  store i64 %113, ptr %114, align 8
  %115 = getelementptr inbounds nuw i8, ptr %18, i64 152
  store ptr null, ptr %115, align 8
  br label %116

116:                                              ; preds = %16, %19, %yuvconfig2image.exit
  %.0 = phi i32 [ 0, %yuvconfig2image.exit ], [ 1, %19 ], [ 8, %16 ]
  ret i32 %.0
}